SF:/home/kawasaki.taiga/repos-hopper/src/cli.rs
FN:28,_RNvNtNtCs2u0sZDDG806_12repos_hopper3cli5testss_21test_cli_add_with_dir
FN:39,_RNvNtNtCs2u0sZDDG806_12repos_hopper3cli5testss_24test_cli_add_without_dir
FNDA:1,_RNvNtNtCs2u0sZDDG806_12repos_hopper3cli5testss_21test_cli_add_with_dir
FNDA:1,_RNvNtNtCs2u0sZDDG806_12repos_hopper3cli5testss_24test_cli_add_without_dir
FNF:2
FNH:2
DA:28,1
DA:29,1
DA:30,1
DA:31,1
DA:32,1
DA:34,0
DA:36,1
DA:39,1
DA:40,1
DA:41,1
DA:42,1
DA:43,1
DA:45,0
DA:47,1
BRF:0
BRH:0
LF:14
LH:12
end_of_record
SF:/home/kawasaki.taiga/repos-hopper/src/lib.rs
FN:40,_RNvMCs2u0sZDDG806_12repos_hopperNtB2_11ReposHopper3new
FN:50,_RNvMCs2u0sZDDG806_12repos_hopperNtB2_11ReposHopper12contains_dir
FN:59,_RNvMCs2u0sZDDG806_12repos_hopperNtB2_11ReposHopper11add_to_file
FN:68,_RNvMCs2u0sZDDG806_12repos_hopperNtB2_11ReposHopper11is_git_repo
FN:72,_RNvMCs2u0sZDDG806_12repos_hopperNtB2_11ReposHopper18check_and_add_repo
FN:135,_RNvMCs2u0sZDDG806_12repos_hopperNtB2_11ReposHopper24remove_nonexistent_repos
FN:17,_RNvCs2u0sZDDG806_12repos_hopper3run
FN:89,_RNvMCs2u0sZDDG806_12repos_hopperNtB2_11ReposHopper18goto_selected_repo
FN:95,_RNCNvMCs2u0sZDDG806_12repos_hopperNtB4_11ReposHopper18goto_selected_repo0B4_
FN:96,_RNCNCNvMCs2u0sZDDG806_12repos_hopperNtB6_11ReposHopper18goto_selected_repo00B6_
FN:98,_RNCNCNCNvMCs2u0sZDDG806_12repos_hopperNtB8_11ReposHopper18goto_selected_repo000B8_
FN:110,_RNCNvMCs2u0sZDDG806_12repos_hopperNtB4_11ReposHopper18goto_selected_repos_0B4_
FN:115,_RNCNvMCs2u0sZDDG806_12repos_hopperNtB4_11ReposHopper18goto_selected_repos0_0B4_
FN:122,_RNCNvMCs2u0sZDDG806_12repos_hopperNtB4_11ReposHopper18goto_selected_repos1_0B4_
FN:125,_RNCNCNvMCs2u0sZDDG806_12repos_hopperNtB6_11ReposHopper18goto_selected_repos1_00B6_
FN:164,_RNvXs_Cs2u0sZDDG806_12repos_hopperNtB4_10ItemStructNtCs2NJocYLK9b8_4skim8SkimItem4text
FN:168,_RNvXs_Cs2u0sZDDG806_12repos_hopperNtB4_10ItemStructNtCs2NJocYLK9b8_4skim8SkimItem6output
FN:171,_RNvXs_Cs2u0sZDDG806_12repos_hopperNtB4_10ItemStructNtCs2NJocYLK9b8_4skim8SkimItem7preview
FN:172,_RNCNvXs_Cs2u0sZDDG806_12repos_hopperNtB6_10ItemStructNtCs2NJocYLK9b8_4skim8SkimItem7preview0B6_
FN:181,_RNvNtCs2u0sZDDG806_12repos_hopper5tests15setup_test_repo
FN:307,_RNvNtCs2u0sZDDG806_12repos_hopper5testss_21test_repos_hopper_new
FN:314,_RNvNtCs2u0sZDDG806_12repos_hopper5testss_16test_is_git_repo
FN:260,_RNvNtNtCs2u0sZDDG806_12repos_hopper5tests24remove_nonexistent_reposs_29test_remove_nonexistent_repos
FN:273,_RNvNtNtCs2u0sZDDG806_12repos_hopper5tests24remove_nonexistent_reposs_34test_non_git_repos_are_not_removed
FN:294,_RNvNtNtCs2u0sZDDG806_12repos_hopper5tests24remove_nonexistent_reposs_24test_keep_existing_repos
FN:218,_RNvNtNtCs2u0sZDDG806_12repos_hopper5tests14add_repositorys_37test_can_add_reposiory_to_config_file
FN:228,_RNvNtNtCs2u0sZDDG806_12repos_hopper5tests14add_repositorys_26test_cant_add_non_git_repo
FN:239,_RNvNtNtCs2u0sZDDG806_12repos_hopper5tests14add_repositorys_32test_cant_add_already_added_repo
FN:41,_RNCNvMCs2u0sZDDG806_12repos_hopperNtB4_11ReposHopper3new0B4_
FN:56,_RNCNvMCs2u0sZDDG806_12repos_hopperNtB4_11ReposHopper12contains_dir0B4_
FNDA:7,_RNvMCs2u0sZDDG806_12repos_hopperNtB2_11ReposHopper3new
FNDA:10,_RNvMCs2u0sZDDG806_12repos_hopperNtB2_11ReposHopper12contains_dir
FNDA:5,_RNvMCs2u0sZDDG806_12repos_hopperNtB2_11ReposHopper11add_to_file
FNDA:11,_RNvMCs2u0sZDDG806_12repos_hopperNtB2_11ReposHopper11is_git_repo
FNDA:7,_RNvMCs2u0sZDDG806_12repos_hopperNtB2_11ReposHopper18check_and_add_repo
FNDA:3,_RNvMCs2u0sZDDG806_12repos_hopperNtB2_11ReposHopper24remove_nonexistent_repos
FNDA:0,_RNvCs2u0sZDDG806_12repos_hopper3run
FNDA:0,_RNvMCs2u0sZDDG806_12repos_hopperNtB2_11ReposHopper18goto_selected_repo
FNDA:0,_RNCNvMCs2u0sZDDG806_12repos_hopperNtB4_11ReposHopper18goto_selected_repo0B4_
FNDA:0,_RNCNCNvMCs2u0sZDDG806_12repos_hopperNtB6_11ReposHopper18goto_selected_repo00B6_
FNDA:0,_RNCNCNCNvMCs2u0sZDDG806_12repos_hopperNtB8_11ReposHopper18goto_selected_repo000B8_
FNDA:0,_RNCNvMCs2u0sZDDG806_12repos_hopperNtB4_11ReposHopper18goto_selected_repos_0B4_
FNDA:0,_RNCNvMCs2u0sZDDG806_12repos_hopperNtB4_11ReposHopper18goto_selected_repos0_0B4_
FNDA:0,_RNCNvMCs2u0sZDDG806_12repos_hopperNtB4_11ReposHopper18goto_selected_repos1_0B4_
FNDA:0,_RNCNCNvMCs2u0sZDDG806_12repos_hopperNtB6_11ReposHopper18goto_selected_repos1_00B6_
FNDA:0,_RNvXs_Cs2u0sZDDG806_12repos_hopperNtB4_10ItemStructNtCs2NJocYLK9b8_4skim8SkimItem4text
FNDA:0,_RNvXs_Cs2u0sZDDG806_12repos_hopperNtB4_10ItemStructNtCs2NJocYLK9b8_4skim8SkimItem6output
FNDA:0,_RNvXs_Cs2u0sZDDG806_12repos_hopperNtB4_10ItemStructNtCs2NJocYLK9b8_4skim8SkimItem7preview
FNDA:0,_RNCNvXs_Cs2u0sZDDG806_12repos_hopperNtB6_10ItemStructNtCs2NJocYLK9b8_4skim8SkimItem7preview0B6_
FNDA:6,_RNvNtCs2u0sZDDG806_12repos_hopper5tests15setup_test_repo
FNDA:1,_RNvNtCs2u0sZDDG806_12repos_hopper5testss_21test_repos_hopper_new
FNDA:1,_RNvNtCs2u0sZDDG806_12repos_hopper5testss_16test_is_git_repo
FNDA:1,_RNvNtNtCs2u0sZDDG806_12repos_hopper5tests24remove_nonexistent_reposs_29test_remove_nonexistent_repos
FNDA:1,_RNvNtNtCs2u0sZDDG806_12repos_hopper5tests24remove_nonexistent_reposs_34test_non_git_repos_are_not_removed
FNDA:1,_RNvNtNtCs2u0sZDDG806_12repos_hopper5tests24remove_nonexistent_reposs_24test_keep_existing_repos
FNDA:1,_RNvNtNtCs2u0sZDDG806_12repos_hopper5tests14add_repositorys_37test_can_add_reposiory_to_config_file
FNDA:1,_RNvNtNtCs2u0sZDDG806_12repos_hopper5tests14add_repositorys_26test_cant_add_non_git_repo
FNDA:1,_RNvNtNtCs2u0sZDDG806_12repos_hopper5tests14add_repositorys_32test_cant_add_already_added_repo
FNDA:0,_RNCNvMCs2u0sZDDG806_12repos_hopperNtB4_11ReposHopper3new0B4_
FNDA:3,_RNCNvMCs2u0sZDDG806_12repos_hopperNtB4_11ReposHopper12contains_dir0B4_
FNF:30
FNH:16
DA:17,0
DA:18,0
DA:19,0
DA:20,0
DA:21,0
DA:22,0
DA:23,0
DA:24,0
DA:25,0
DA:26,0
DA:29,0
DA:30,0
DA:32,0
DA:40,7
DA:41,7
DA:42,7
DA:43,7
DA:44,7
DA:45,7
DA:46,0
DA:47,7
DA:48,7
DA:50,10
DA:51,10
DA:52,10
DA:53,10
DA:54,10
DA:55,10
DA:56,10
DA:57,10
DA:59,5
DA:60,5
DA:61,5
DA:62,5
DA:63,5
DA:64,5
DA:65,5
DA:66,5
DA:68,11
DA:69,11
DA:70,11
DA:72,7
DA:73,7
DA:74,7
DA:75,7
DA:76,1
DA:77,1
DA:78,6
DA:79,6
DA:80,6
DA:81,1
DA:82,5
DA:84,5
DA:85,5
DA:86,5
DA:87,7
DA:89,0
DA:90,0
DA:92,0
DA:93,0
DA:94,0
DA:95,0
DA:96,0
DA:97,0
DA:98,0
DA:99,0
DA:100,0
DA:101,0
DA:102,0
DA:103,0
DA:104,0
DA:105,0
DA:106,0
DA:107,0
DA:108,0
DA:109,0
DA:110,0
DA:111,0
DA:112,0
DA:113,0
DA:114,0
DA:115,0
DA:116,0
DA:117,0
DA:118,0
DA:119,0
DA:120,0
DA:121,0
DA:122,0
DA:123,0
DA:124,0
DA:125,0
DA:126,0
DA:127,0
DA:129,0
DA:130,0
DA:131,0
DA:132,0
DA:133,0
DA:135,3
DA:136,3
DA:137,3
DA:138,3
DA:140,3
DA:141,3
DA:142,3
DA:143,3
DA:144,1
DA:145,2
DA:146,2
DA:147,2
DA:150,3
DA:151,4
DA:152,1
DA:154,3
DA:155,3
DA:164,0
DA:165,0
DA:166,0
DA:168,0
DA:169,0
DA:170,0
DA:171,0
DA:172,0
DA:173,0
DA:181,6
DA:182,6
DA:183,6
DA:184,6
DA:185,6
DA:186,6
DA:187,6
DA:188,6
DA:189,6
DA:190,6
DA:191,6
DA:192,6
DA:193,6
DA:194,6
DA:195,6
DA:196,6
DA:197,6
DA:198,6
DA:199,6
DA:200,6
DA:201,6
DA:202,6
DA:203,6
DA:204,6
DA:205,6
DA:206,6
DA:207,6
DA:208,6
DA:209,6
DA:218,1
DA:219,1
DA:220,1
DA:221,1
DA:222,1
DA:223,1
DA:224,1
DA:225,1
DA:228,1
DA:229,1
DA:230,1
DA:231,1
DA:232,1
DA:233,1
DA:234,1
DA:235,1
DA:239,1
DA:240,1
DA:241,1
DA:242,1
DA:243,1
DA:244,1
DA:245,1
DA:246,1
DA:247,1
DA:248,1
DA:249,1
DA:260,1
DA:261,1
DA:262,1
DA:263,1
DA:264,1
DA:265,1
DA:266,1
DA:267,1
DA:268,1
DA:269,1
DA:270,1
DA:273,1
DA:274,1
DA:275,1
DA:276,1
DA:277,1
DA:278,1
DA:279,1
DA:281,2
DA:282,2
DA:283,2
DA:284,1
DA:285,1
DA:286,1
DA:287,1
DA:289,1
DA:290,1
DA:291,1
DA:294,1
DA:295,1
DA:296,1
DA:297,1
DA:298,1
DA:299,1
DA:300,1
DA:301,1
DA:302,1
DA:303,1
DA:307,1
DA:308,1
DA:309,1
DA:310,1
DA:311,1
DA:314,1
DA:315,1
DA:316,1
DA:318,1
DA:319,1
DA:320,1
BRF:0
BRH:0
LF:244
LH:165
end_of_record
SF:/home/kawasaki.taiga/repos-hopper/src/main.rs
FN:3,_RNvCsf9ovNeqsb32_12repos_hopper4main
FNDA:0,_RNvCsf9ovNeqsb32_12repos_hopper4main
FNF:1
FNH:0
DA:3,0
DA:4,0
DA:5,0
BRF:0
BRH:0
LF:3
LH:0
end_of_record
SF:/home/kawasaki.taiga/repos-hopper/src/preview.rs
FN:8,_RNvNtCs2u0sZDDG806_12repos_hopper7preview16generate_preview
FNDA:0,_RNvNtCs2u0sZDDG806_12repos_hopper7preview16generate_preview
FNF:1
FNH:0
DA:8,0
DA:9,0
DA:10,0
BRF:0
BRH:0
LF:3
LH:0
end_of_record
SF:/home/kawasaki.taiga/repos-hopper/src/preview/formatters.rs
FN:43,_RNCNvMs_NtNtCs2u0sZDDG806_12repos_hopper7preview10formattersNtB6_15CommitFormatter27format_commit_history_entry0Ba_
FN:10,_RNvMNtNtCs2u0sZDDG806_12repos_hopper7preview10formattersNtB2_15StatusFormatter6format
FN:26,_RNvMs_NtNtCs2u0sZDDG806_12repos_hopper7preview10formattersNtB4_15CommitFormatter20format_latest_commit
FN:37,_RNvMs_NtNtCs2u0sZDDG806_12repos_hopper7preview10formattersNtB4_15CommitFormatter27format_commit_history_entry
FN:56,_RNvMs0_NtNtCs2u0sZDDG806_12repos_hopper7preview10formattersNtB5_15BranchFormatter18format_branch_info
FN:72,_RNvNtNtNtCs2u0sZDDG806_12repos_hopper7preview10formatters5testss_21test_status_formatter
FNDA:1,_RNCNvMs_NtNtCs2u0sZDDG806_12repos_hopper7preview10formattersNtB6_15CommitFormatter27format_commit_history_entry0Ba_
FNDA:6,_RNvMNtNtCs2u0sZDDG806_12repos_hopper7preview10formattersNtB2_15StatusFormatter6format
FNDA:1,_RNvMs_NtNtCs2u0sZDDG806_12repos_hopper7preview10formattersNtB4_15CommitFormatter20format_latest_commit
FNDA:1,_RNvMs_NtNtCs2u0sZDDG806_12repos_hopper7preview10formattersNtB4_15CommitFormatter27format_commit_history_entry
FNDA:1,_RNvMs0_NtNtCs2u0sZDDG806_12repos_hopper7preview10formattersNtB5_15BranchFormatter18format_branch_info
FNDA:1,_RNvNtNtNtCs2u0sZDDG806_12repos_hopper7preview10formatters5testss_21test_status_formatter
FNF:6
FNH:6
DA:10,6
DA:11,6
DA:12,6
DA:13,6
DA:14,5
DA:15,4
DA:16,3
DA:17,2
DA:18,1
DA:19,0
DA:21,6
DA:22,6
DA:26,1
DA:27,1
DA:28,1
DA:29,1
DA:30,1
DA:31,1
DA:32,1
DA:33,1
DA:34,1
DA:35,1
DA:36,1
DA:37,1
DA:38,1
DA:39,1
DA:40,1
DA:41,1
DA:42,1
DA:43,1
DA:44,1
DA:45,1
DA:46,1
DA:47,1
DA:48,1
DA:49,1
DA:50,1
DA:51,1
DA:52,1
DA:56,1
DA:57,1
DA:58,1
DA:59,1
DA:60,1
DA:61,1
DA:62,1
DA:63,1
DA:64,1
DA:72,1
DA:73,1
DA:74,1
DA:75,1
DA:76,1
DA:77,1
DA:78,1
DA:79,1
BRF:0
BRH:0
LF:57
LH:56
end_of_record
SF:/home/kawasaki.taiga/repos-hopper/src/preview/repository_preview.rs
FN:108,_RNvNtNtNtCs2u0sZDDG806_12repos_hopper7preview18repository_preview5tests15setup_test_repo
FN:140,_RNvNtNtNtCs2u0sZDDG806_12repos_hopper7preview18repository_preview5testss_27test_repository_preview_new
FN:147,_RNvNtNtNtCs2u0sZDDG806_12repos_hopper7preview18repository_preview5testss_32test_repository_preview_generate
FN:155,_RNvNtNtNtCs2u0sZDDG806_12repos_hopper7preview18repository_preview5testss_35test_repository_preview_nonexistent
FN:162,_RNvNtNtNtCs2u0sZDDG806_12repos_hopper7preview18repository_preview5testss_31test_repository_preview_not_git
FN:13,_RNvMNtNtCs2u0sZDDG806_12repos_hopper7preview18repository_previewNtB2_17RepositoryPreview3new
FN:22,_RNvMNtNtCs2u0sZDDG806_12repos_hopper7preview18repository_previewNtB2_17RepositoryPreview8generate
FN:41,_RNvMNtNtCs2u0sZDDG806_12repos_hopper7preview18repository_previewNtB2_17RepositoryPreview15generate_header
FN:49,_RNvMNtNtCs2u0sZDDG806_12repos_hopper7preview18repository_previewNtB2_17RepositoryPreview20generate_branch_info
FN:57,_RNvMNtNtCs2u0sZDDG806_12repos_hopper7preview18repository_previewNtB2_17RepositoryPreview27generate_latest_commit_info
FN:67,_RNvMNtNtCs2u0sZDDG806_12repos_hopper7preview18repository_previewNtB2_17RepositoryPreview20generate_status_info
FN:83,_RNvMNtNtCs2u0sZDDG806_12repos_hopper7preview18repository_previewNtB2_17RepositoryPreview23generate_commit_history
FN:158,_RNCNvNtNtNtCs2u0sZDDG806_12repos_hopper7preview18repository_preview5testss_35test_repository_preview_nonexistent0B9_
FN:166,_RNCNvNtNtNtCs2u0sZDDG806_12repos_hopper7preview18repository_preview5testss_31test_repository_preview_not_git0B9_
FNDA:2,_RNvNtNtNtCs2u0sZDDG806_12repos_hopper7preview18repository_preview5tests15setup_test_repo
FNDA:1,_RNvNtNtNtCs2u0sZDDG806_12repos_hopper7preview18repository_preview5testss_27test_repository_preview_new
FNDA:1,_RNvNtNtNtCs2u0sZDDG806_12repos_hopper7preview18repository_preview5testss_32test_repository_preview_generate
FNDA:1,_RNvNtNtNtCs2u0sZDDG806_12repos_hopper7preview18repository_preview5testss_35test_repository_preview_nonexistent
FNDA:1,_RNvNtNtNtCs2u0sZDDG806_12repos_hopper7preview18repository_preview5testss_31test_repository_preview_not_git
FNDA:4,_RNvMNtNtCs2u0sZDDG806_12repos_hopper7preview18repository_previewNtB2_17RepositoryPreview3new
FNDA:3,_RNvMNtNtCs2u0sZDDG806_12repos_hopper7preview18repository_previewNtB2_17RepositoryPreview8generate
FNDA:3,_RNvMNtNtCs2u0sZDDG806_12repos_hopper7preview18repository_previewNtB2_17RepositoryPreview15generate_header
FNDA:1,_RNvMNtNtCs2u0sZDDG806_12repos_hopper7preview18repository_previewNtB2_17RepositoryPreview20generate_branch_info
FNDA:1,_RNvMNtNtCs2u0sZDDG806_12repos_hopper7preview18repository_previewNtB2_17RepositoryPreview27generate_latest_commit_info
FNDA:1,_RNvMNtNtCs2u0sZDDG806_12repos_hopper7preview18repository_previewNtB2_17RepositoryPreview20generate_status_info
FNDA:1,_RNvMNtNtCs2u0sZDDG806_12repos_hopper7preview18repository_previewNtB2_17RepositoryPreview23generate_commit_history
FNDA:2,_RNCNvNtNtNtCs2u0sZDDG806_12repos_hopper7preview18repository_preview5testss_35test_repository_preview_nonexistent0B9_
FNDA:2,_RNCNvNtNtNtCs2u0sZDDG806_12repos_hopper7preview18repository_preview5testss_31test_repository_preview_not_git0B9_
FNF:14
FNH:14
DA:13,4
DA:14,4
DA:15,3
DA:17,1
DA:19,4
DA:20,4
DA:22,3
DA:23,3
DA:24,3
DA:25,3
DA:27,3
DA:28,1
DA:29,1
DA:30,1
DA:31,1
DA:32,2
DA:33,1
DA:34,1
DA:35,1
DA:36,1
DA:38,3
DA:39,3
DA:41,3
DA:42,3
DA:43,3
DA:44,3
DA:45,3
DA:46,3
DA:47,3
DA:49,1
DA:50,1
DA:51,1
DA:52,1
DA:53,1
DA:54,1
DA:55,1
DA:57,1
DA:58,1
DA:59,1
DA:60,1
DA:61,1
DA:62,1
DA:63,0
DA:64,1
DA:65,1
DA:67,1
DA:68,1
DA:69,1
DA:70,1
DA:71,0
DA:72,0
DA:73,0
DA:74,0
DA:75,0
DA:76,0
DA:77,0
DA:78,1
DA:79,0
DA:80,1
DA:81,1
DA:83,1
DA:84,1
DA:85,1
DA:87,1
DA:88,1
DA:89,1
DA:91,1
DA:92,1
DA:93,1
DA:94,1
DA:96,0
DA:97,1
DA:98,1
DA:108,2
DA:109,2
DA:110,2
DA:111,2
DA:112,2
DA:113,2
DA:114,2
DA:115,2
DA:116,2
DA:117,2
DA:118,2
DA:119,2
DA:120,2
DA:121,2
DA:122,2
DA:123,2
DA:124,2
DA:125,2
DA:126,2
DA:127,2
DA:128,2
DA:129,2
DA:130,2
DA:131,2
DA:132,2
DA:133,2
DA:134,2
DA:135,2
DA:136,2
DA:137,2
DA:140,1
DA:141,1
DA:142,1
DA:143,1
DA:144,1
DA:147,1
DA:148,1
DA:149,1
DA:150,1
DA:151,1
DA:152,1
DA:155,1
DA:156,1
DA:157,1
DA:158,2
DA:159,1
DA:162,1
DA:163,1
DA:164,1
DA:165,1
DA:166,2
DA:167,1
BRF:0
BRH:0
LF:127
LH:117
end_of_record